target datalayout = "e-m:e-p270:32:32-p271:32:32-p272:64:64-i64:64-i128:128-f80:128-n8:16:32:64-S128"
target triple = "x86_64-unknown-linux-gnu"

%"class.folly::Range" = type { ptr, ptr }
%"struct.facebook::velox::type::fbhive::Token" = type { ptr, %"class.folly::Range" }
%"struct.facebook::velox::type::fbhive::TokenAndRemaining" = type { %"struct.facebook::velox::type::fbhive::Token", %"class.folly::Range" }

@.str.40 = private unnamed_addr constant [19 x i8] c"index out of range\00", align 1

; Function Attrs: mustprogress nounwind uwtable
define linkonce_odr void @_ZN5folly5RangeIPKcEC2Ev(ptr noundef nonnull align 8 dereferenceable(16) %this) unnamed_addr #1 comdat align 2 {
entry:
  %this.addr = alloca ptr, align 8
  store ptr %this, ptr %this.addr, align 8
  %this1 = load ptr, ptr %this.addr, align 8
  %b_ = getelementptr inbounds %"class.folly::Range", ptr %this1, i32 0, i32 0
  store ptr null, ptr %b_, align 8
  %e_ = getelementptr inbounds %"class.folly::Range", ptr %this1, i32 0, i32 1
  store ptr null, ptr %e_, align 8
  ret void
}

; Function Attrs: mustprogress uwtable
define linkonce_odr void @_ZN8facebook5velox4type6fbhive5TokenC2Ev(ptr noundef nonnull align 8 dereferenceable(24) %this) unnamed_addr #0 comdat align 2 {
entry:
  %this.addr = alloca ptr, align 8
  store ptr %this, ptr %this.addr, align 8
  %this1 = load ptr, ptr %this.addr, align 8
  %value = getelementptr inbounds %"struct.facebook::velox::type::fbhive::Token", ptr %this1, i32 0, i32 1
  call void @_ZN5folly5RangeIPKcEC2Ev(ptr noundef nonnull align 8 dereferenceable(16) %value)
  ret void
}

; Function Attrs: mustprogress nounwind uwtable
define linkonce_odr noundef i64 @_ZNK5folly5RangeIPKcE4sizeEv(ptr noundef nonnull align 8 dereferenceable(16) %this) #1 comdat align 2 {
entry:
  %this.addr = alloca ptr, align 8
  store ptr %this, ptr %this.addr, align 8
  %this1 = load ptr, ptr %this.addr, align 8
  %e_ = getelementptr inbounds %"class.folly::Range", ptr %this1, i32 0, i32 1
  %0 = load ptr, ptr %e_, align 8
  %b_ = getelementptr inbounds %"class.folly::Range", ptr %this1, i32 0, i32 0
  %1 = load ptr, ptr %b_, align 8
  %sub.ptr.lhs.cast = ptrtoint ptr %0 to i64
  %sub.ptr.rhs.cast = ptrtoint ptr %1 to i64
  %sub.ptr.sub = sub i64 %sub.ptr.lhs.cast, %sub.ptr.rhs.cast
  ret i64 %sub.ptr.sub
}

; Function Attrs: mustprogress uwtable
define linkonce_odr void @_ZN8facebook5velox4type6fbhive17TokenAndRemainingC2Ev(ptr noundef nonnull align 8 dereferenceable(40) %this) unnamed_addr #0 comdat align 2 {
entry:
  %this.addr = alloca ptr, align 8
  store ptr %this, ptr %this.addr, align 8
  %this1 = load ptr, ptr %this.addr, align 8
  call void @_ZN8facebook5velox4type6fbhive5TokenC2Ev(ptr noundef nonnull align 8 dereferenceable(24) %this1)
  %remaining = getelementptr inbounds %"struct.facebook::velox::type::fbhive::TokenAndRemaining", ptr %this1, i32 0, i32 1
  call void @_ZN5folly5RangeIPKcEC2Ev(ptr noundef nonnull align 8 dereferenceable(16) %remaining)
  ret void
}

; Function Attrs: mustprogress uwtable
define linkonce_odr void @_ZN5folly5RangeIPKcE7advanceEm(ptr noundef nonnull align 8 dereferenceable(16) %this, i64 noundef %n) #0 comdat align 2 {
entry:
  %args.addr.i = alloca ptr, align 8
  %this.addr = alloca ptr, align 8
  %n.addr = alloca i64, align 8
  store ptr %this, ptr %this.addr, align 8
  store i64 %n, ptr %n.addr, align 8
  %this1 = load ptr, ptr %this.addr, align 8
  %0 = load i64, ptr %n.addr, align 8
  %call = call noundef i64 @_ZNK5folly5RangeIPKcE4sizeEv(ptr noundef nonnull align 8 dereferenceable(16) %this1)
  %cmp = icmp ugt i64 %0, %call
  br i1 %cmp, label %if.then, label %if.end

if.then:                                          ; preds = %entry
  store ptr @.str.40, ptr %args.addr.i, align 8
  %1 = load ptr, ptr %args.addr.i, align 8
  call void @_ZN5folly6detail16throw_exception_ISt12out_of_rangeJPKcEEEvDpT0_(ptr noundef %1) #20
  unreachable

_ZN5folly15throw_exceptionISt12out_of_rangeJRA19_KcEEEvDpOT0_.exit: ; No predecessors!
  unreachable

if.end:                                           ; preds = %entry
  %2 = load i64, ptr %n.addr, align 8
  %b_ = getelementptr inbounds %"class.folly::Range", ptr %this1, i32 0, i32 0
  %3 = load ptr, ptr %b_, align 8
  %add.ptr = getelementptr inbounds i8, ptr %3, i64 %2
  store ptr %add.ptr, ptr %b_, align 8
  ret void
}

; Function Attrs: mustprogress nounwind uwtable
define linkonce_odr void @_ZN5folly5RangeIPKcEC2ES2_S2_(ptr noundef nonnull align 8 dereferenceable(16) %this, ptr noundef %start, ptr noundef %end) unnamed_addr #1 comdat align 2 {
entry:
  %this.addr = alloca ptr, align 8
  %start.addr = alloca ptr, align 8
  %end.addr = alloca ptr, align 8
  store ptr %this, ptr %this.addr, align 8
  store ptr %start, ptr %start.addr, align 8
  store ptr %end, ptr %end.addr, align 8
  %this1 = load ptr, ptr %this.addr, align 8
  %b_ = getelementptr inbounds %"class.folly::Range", ptr %this1, i32 0, i32 0
  %0 = load ptr, ptr %start.addr, align 8
  store ptr %0, ptr %b_, align 8
  %e_ = getelementptr inbounds %"class.folly::Range", ptr %this1, i32 0, i32 1
  %1 = load ptr, ptr %end.addr, align 8
  store ptr %1, ptr %e_, align 8
  ret void
}

; Function Attrs: mustprogress nounwind uwtable
define linkonce_odr noundef ptr @_ZNK5folly5RangeIPKcE6cbeginEv(ptr noundef nonnull align 8 dereferenceable(16) %this) #1 comdat align 2 {
entry:
  %this.addr = alloca ptr, align 8
  store ptr %this, ptr %this.addr, align 8
  %this1 = load ptr, ptr %this.addr, align 8
  %b_ = getelementptr inbounds %"class.folly::Range", ptr %this1, i32 0, i32 0
  %0 = load ptr, ptr %b_, align 8
  ret ptr %0
}

; Function Attrs: mustprogress uwtable
define void @_ZNK8facebook5velox4type6fbhive14HiveTypeParser17makeExtendedTokenEPNS2_13TokenMetadataEN5folly5RangeIPKcEEm(ptr noalias sret(%"struct.facebook::velox::type::fbhive::TokenAndRemaining") align 8 %agg.result, ptr noundef nonnull align 8 dereferenceable(48) %this, ptr noundef %tokenMetadata, ptr %sp.coerce0, ptr %sp.coerce1, i64 noundef %len) #0 align 2 {
entry:
  %sp = alloca %"class.folly::Range", align 8
  %this.addr = alloca ptr, align 8
  %tokenMetadata.addr = alloca ptr, align 8
  %len.addr = alloca i64, align 8
  %spmatch = alloca %"class.folly::Range", align 8
  %0 = getelementptr inbounds { ptr, ptr }, ptr %sp, i32 0, i32 0
  store ptr %sp.coerce0, ptr %0, align 8
  %1 = getelementptr inbounds { ptr, ptr }, ptr %sp, i32 0, i32 1
  store ptr %sp.coerce1, ptr %1, align 8
  store ptr %this, ptr %this.addr, align 8
  store ptr %tokenMetadata, ptr %tokenMetadata.addr, align 8
  store i64 %len, ptr %len.addr, align 8
  %call = call noundef ptr @_ZNK5folly5RangeIPKcE6cbeginEv(ptr noundef nonnull align 8 dereferenceable(16) %sp)
  %call2 = call noundef ptr @_ZNK5folly5RangeIPKcE6cbeginEv(ptr noundef nonnull align 8 dereferenceable(16) %sp)
  %2 = load i64, ptr %len.addr, align 8
  %add.ptr = getelementptr inbounds i8, ptr %call2, i64 %2
  call void @_ZN5folly5RangeIPKcEC2ES2_S2_(ptr noundef nonnull align 8 dereferenceable(16) %spmatch, ptr noundef %call, ptr noundef %add.ptr)
  %3 = load i64, ptr %len.addr, align 8
  call void @_ZN5folly5RangeIPKcE7advanceEm(ptr noundef nonnull align 8 dereferenceable(16) %sp, i64 noundef %3)
  call void @_ZN8facebook5velox4type6fbhive17TokenAndRemainingC2Ev(ptr noundef nonnull align 8 dereferenceable(40) %agg.result)
  %4 = load ptr, ptr %tokenMetadata.addr, align 8
  %metadata = getelementptr inbounds %"struct.facebook::velox::type::fbhive::Token", ptr %agg.result, i32 0, i32 0
  store ptr %4, ptr %metadata, align 8
  %value = getelementptr inbounds %"struct.facebook::velox::type::fbhive::Token", ptr %agg.result, i32 0, i32 1
  call void @llvm.memcpy.p0.p0.i64(ptr align 8 %value, ptr align 8 %spmatch, i64 16, i1 false)
  %remaining = getelementptr inbounds %"struct.facebook::velox::type::fbhive::TokenAndRemaining", ptr %agg.result, i32 0, i32 1
  call void @llvm.memcpy.p0.p0.i64(ptr align 8 %remaining, ptr align 8 %sp, i64 16, i1 false)
  ret void
}