; Function Attrs: mustprogress uwtable
define void @_ZNK8facebook5velox4type6fbhive14HiveTypeParser17makeExtendedTokenEPNS2_13TokenMetadataEN5folly5RangeIPKcEEm(ptr noalias nocapture writeonly sret(%"struct.facebook::velox::type::fbhive::TokenAndRemaining") align 8 %agg.result, ptr nocapture noundef nonnull readnone align 8 dereferenceable(48) %this, ptr noundef %tokenMetadata, ptr %sp.coerce0, ptr %sp.coerce1, i64 noundef %len) local_unnamed_addr #0 align 2 {
entry:
  %sub.ptr.lhs.cast.i.i = ptrtoint ptr %sp.coerce1 to i64
  %sub.ptr.rhs.cast.i.i = ptrtoint ptr %sp.coerce0 to i64
  %sub.ptr.sub.i.i = sub i64 %sub.ptr.lhs.cast.i.i, %sub.ptr.rhs.cast.i.i
  %cmp.i = icmp ult i64 %sub.ptr.sub.i.i, %len
  br i1 %cmp.i, label %if.then.i, label %_ZN5folly5RangeIPKcE7advanceEm.exit

if.then.i:                                        ; preds = %entry
  tail call void @_ZN5folly6detail16throw_exception_ISt12out_of_rangeJPKcEEEvDpT0_(ptr noundef nonnull @.str.40) #29
  unreachable

_ZN5folly5RangeIPKcE7advanceEm.exit:              ; preds = %entry
  %add.ptr = getelementptr inbounds i8, ptr %sp.coerce0, i64 %len
  %value.i.i = getelementptr inbounds i8, ptr %agg.result, i64 8
  store ptr %tokenMetadata, ptr %agg.result, align 8
  store ptr %sp.coerce0, ptr %value.i.i, align 8
  %spmatch.sroa.2.0.value.sroa_idx = getelementptr inbounds i8, ptr %agg.result, i64 16
  store ptr %add.ptr, ptr %spmatch.sroa.2.0.value.sroa_idx, align 8
  %remaining = getelementptr inbounds i8, ptr %agg.result, i64 24
  store ptr %add.ptr, ptr %remaining, align 8
  %sp.sroa.6.0.remaining.sroa_idx = getelementptr inbounds i8, ptr %agg.result, i64 32
  store ptr %sp.coerce1, ptr %sp.sroa.6.0.remaining.sroa_idx, align 8
  ret void
}